target datalayout = "e-m:e-p270:32:32-p271:32:32-p272:64:64-i64:64-i128:128-f80:128-n8:16:32:64-S128"
target triple = "x86_64-pc-linux-gnu"

; Function Attrs: mustprogress nounwind uwtable
define linkonce_odr noundef zeroext i1 @_Z14dtStatusFailedj(i32 noundef %0) #0 comdat {
  %2 = alloca i32, align 4
  store i32 %0, ptr %2, align 4
  %3 = load i32, ptr %2, align 4
  %4 = and i32 %3, -2147483648
  %5 = icmp ne i32 %4, 0
  ret i1 %5
}

; Function Attrs: mustprogress uwtable
define noundef i32 @_ZNK14dtNavMeshQuery15getEdgeMidPointEjPK6dtPolyPK10dtMeshTilejS2_S5_Pf(ptr noundef nonnull align 8 dereferenceable(104) %0, i32 noundef %1, ptr noundef %2, ptr noundef %3, i32 noundef %4, ptr noundef %5, ptr noundef %6, ptr noundef %7) #1 align 2 {
  %9 = alloca i32, align 4
  %10 = alloca ptr, align 8
  %11 = alloca i32, align 4
  %12 = alloca ptr, align 8
  %13 = alloca ptr, align 8
  %14 = alloca i32, align 4
  %15 = alloca ptr, align 8
  %16 = alloca ptr, align 8
  %17 = alloca ptr, align 8
  %18 = alloca [3 x float], align 4
  %19 = alloca [3 x float], align 4
  store ptr %0, ptr %10, align 8
  store i32 %1, ptr %11, align 4
  store ptr %2, ptr %12, align 8
  store ptr %3, ptr %13, align 8
  store i32 %4, ptr %14, align 4
  store ptr %5, ptr %15, align 8
  store ptr %6, ptr %16, align 8
  store ptr %7, ptr %17, align 8
  %20 = load ptr, ptr %10, align 8
  %21 = load i32, ptr %11, align 4
  %22 = load ptr, ptr %12, align 8
  %23 = load ptr, ptr %13, align 8
  %24 = load i32, ptr %14, align 4
  %25 = load ptr, ptr %15, align 8
  %26 = load ptr, ptr %16, align 8
  %27 = getelementptr inbounds [3 x float], ptr %18, i64 0, i64 0
  %28 = getelementptr inbounds [3 x float], ptr %19, i64 0, i64 0
  %29 = call noundef i32 @_ZNK14dtNavMeshQuery15getPortalPointsEjPK6dtPolyPK10dtMeshTilejS2_S5_PfS6_(ptr noundef nonnull align 8 dereferenceable(104) %20, i32 noundef %21, ptr noundef %22, ptr noundef %23, i32 noundef %24, ptr noundef %25, ptr noundef %26, ptr noundef %27, ptr noundef %28)
  %30 = call noundef zeroext i1 @_Z14dtStatusFailedj(i32 noundef %29)
  br i1 %30, label %31, label %32

31:                                               ; preds = %8
  store i32 -2147483640, ptr %9, align 4
  br label %57

32:                                               ; preds = %8
  %33 = getelementptr inbounds [3 x float], ptr %18, i64 0, i64 0
  %34 = load float, ptr %33, align 4
  %35 = getelementptr inbounds [3 x float], ptr %19, i64 0, i64 0
  %36 = load float, ptr %35, align 4
  %37 = fadd float %34, %36
  %38 = fmul float %37, 5.000000e-01
  %39 = load ptr, ptr %17, align 8
  %40 = getelementptr inbounds float, ptr %39, i64 0
  store float %38, ptr %40, align 4
  %41 = getelementptr inbounds [3 x float], ptr %18, i64 0, i64 1
  %42 = load float, ptr %41, align 4
  %43 = getelementptr inbounds [3 x float], ptr %19, i64 0, i64 1
  %44 = load float, ptr %43, align 4
  %45 = fadd float %42, %44
  %46 = fmul float %45, 5.000000e-01
  %47 = load ptr, ptr %17, align 8
  %48 = getelementptr inbounds float, ptr %47, i64 1
  store float %46, ptr %48, align 4
  %49 = getelementptr inbounds [3 x float], ptr %18, i64 0, i64 2
  %50 = load float, ptr %49, align 4
  %51 = getelementptr inbounds [3 x float], ptr %19, i64 0, i64 2
  %52 = load float, ptr %51, align 4
  %53 = fadd float %50, %52
  %54 = fmul float %53, 5.000000e-01
  %55 = load ptr, ptr %17, align 8
  %56 = getelementptr inbounds float, ptr %55, i64 2
  store float %54, ptr %56, align 4
  store i32 1073741824, ptr %9, align 4
  br label %57

57:                                               ; preds = %32, %31
  %58 = load i32, ptr %9, align 4
  ret i32 %58
}