; Function Attrs: mustprogress nofree norecurse nosync nounwind memory(read, argmem: readwrite, inaccessiblemem: none) uwtable
define noundef i32 @_ZNK14dtNavMeshQuery15getEdgeMidPointEjPK6dtPolyPK10dtMeshTilejS2_S5_Pf(ptr nocapture noundef nonnull readnone align 8 dereferenceable(104) %0, i32 noundef %1, ptr nocapture noundef readonly %2, ptr nocapture noundef readonly %3, i32 noundef %4, ptr nocapture noundef readonly %5, ptr nocapture noundef readonly %6, ptr nocapture noundef writeonly %7) local_unnamed_addr #11 align 2 {
  %9 = alloca [3 x float], align 8
  %10 = alloca [3 x float], align 8
  %11 = call noundef i32 @_ZNK14dtNavMeshQuery15getPortalPointsEjPK6dtPolyPK10dtMeshTilejS2_S5_PfS6_(ptr nonnull align 8 poison, i32 noundef %1, ptr noundef %2, ptr noundef %3, i32 noundef %4, ptr noundef %5, ptr noundef %6, ptr noundef nonnull %9, ptr noundef nonnull %10), !range !12
  %12 = icmp slt i32 %11, 0
  br i1 %12, label %25, label %13

13:                                               ; preds = %8
  %14 = load <2 x float>, ptr %9, align 8
  %15 = load <2 x float>, ptr %10, align 8
  %16 = fadd <2 x float> %14, %15
  %17 = fmul <2 x float> %16, <float 5.000000e-01, float 5.000000e-01>
  store <2 x float> %17, ptr %7, align 4
  %18 = getelementptr inbounds i8, ptr %9, i64 8
  %19 = load float, ptr %18, align 8
  %20 = getelementptr inbounds i8, ptr %10, i64 8
  %21 = load float, ptr %20, align 8
  %22 = fadd float %19, %21
  %23 = fmul float %22, 5.000000e-01
  %24 = getelementptr inbounds i8, ptr %7, i64 8
  store float %23, ptr %24, align 4
  br label %25

25:                                               ; preds = %8, %13
  %.0 = phi i32 [ 1073741824, %13 ], [ -2147483640, %8 ]
  ret i32 %.0
}